target datalayout = "e-m:e-p270:32:32-p271:32:32-p272:64:64-i64:64-i128:128-f80:128-n8:16:32:64-S128"
target triple = "x86_64-unknown-linux-gnu"

%"class.icu_75::CharsetDetector" = type { ptr, ptr, i32, i8, i8, ptr }

@_ZL19fCSRecognizers_size = internal global i32 0, align 4

; Function Attrs: mustprogress nounwind uwtable
define internal noundef signext i8 @_ZL9U_FAILURE10UErrorCode(i32 noundef %code) #3 {
entry:
  %code.addr = alloca i32, align 4
  store i32 %code, ptr %code.addr, align 4
  %0 = load i32, ptr %code.addr, align 4
  %cmp = icmp sgt i32 %0, 0
  %conv = zext i1 %cmp to i8
  ret i8 %conv
}

; Function Attrs: mustprogress uwtable
define void @_ZN6icu_7515CharsetDetectorC2ER10UErrorCode(ptr noundef nonnull align 8 dereferenceable(32) %this, ptr noundef nonnull align 4 dereferenceable(4) %status) unnamed_addr #0 align 2 personality ptr @__gxx_personality_v0 {
entry:
  %this.addr = alloca ptr, align 8
  %status.addr = alloca ptr, align 8
  %cleanup.cond = alloca i1, align 1
  %exn.slot = alloca ptr, align 8
  %ehselector.slot = alloca i32, align 4
  %i = alloca i32, align 4
  %saved-rvalue = alloca ptr, align 8
  %cleanup.cond16 = alloca i1, align 1
  store ptr %this, ptr %this.addr, align 8
  store ptr %status, ptr %status.addr, align 8
  %this1 = load ptr, ptr %this.addr, align 8
  %textIn = getelementptr inbounds %"class.icu_75::CharsetDetector", ptr %this1, i32 0, i32 0
  %call = call noundef ptr @_ZN6icu_757UMemorynwEm(i64 noundef 56) #9
  %new.isnull = icmp eq ptr %call, null
  store i1 false, ptr %cleanup.cond, align 1
  br i1 %new.isnull, label %new.cont, label %new.notnull

new.notnull:                                      ; preds = %entry
  store i1 true, ptr %cleanup.cond, align 1
  %0 = load ptr, ptr %status.addr, align 8
  invoke void @_ZN6icu_759InputTextC1ER10UErrorCode(ptr noundef nonnull align 8 dereferenceable(52) %call, ptr noundef nonnull align 4 dereferenceable(4) %0)
          to label %invoke.cont unwind label %lpad

invoke.cont:                                      ; preds = %new.notnull
  br label %new.cont

new.cont:                                         ; preds = %invoke.cont, %entry
  %1 = phi ptr [ %call, %invoke.cont ], [ null, %entry ]
  store ptr %1, ptr %textIn, align 8
  %resultArray = getelementptr inbounds %"class.icu_75::CharsetDetector", ptr %this1, i32 0, i32 1
  store ptr null, ptr %resultArray, align 8
  %resultCount = getelementptr inbounds %"class.icu_75::CharsetDetector", ptr %this1, i32 0, i32 2
  store i32 0, ptr %resultCount, align 8
  %fStripTags = getelementptr inbounds %"class.icu_75::CharsetDetector", ptr %this1, i32 0, i32 3
  store i8 0, ptr %fStripTags, align 4
  %fFreshTextSet = getelementptr inbounds %"class.icu_75::CharsetDetector", ptr %this1, i32 0, i32 4
  store i8 0, ptr %fFreshTextSet, align 1
  %fEnabledRecognizers = getelementptr inbounds %"class.icu_75::CharsetDetector", ptr %this1, i32 0, i32 5
  store ptr null, ptr %fEnabledRecognizers, align 8
  %2 = load ptr, ptr %status.addr, align 8
  %3 = load i32, ptr %2, align 4
  %call2 = call noundef signext i8 @_ZL9U_FAILURE10UErrorCode(i32 noundef %3)
  %tobool = icmp ne i8 %call2, 0
  br i1 %tobool, label %if.then, label %if.end

if.then:                                          ; preds = %new.cont
  br label %for.end

lpad:                                             ; preds = %new.notnull
  %4 = landingpad { ptr, i32 }
          cleanup
  %5 = extractvalue { ptr, i32 } %4, 0
  store ptr %5, ptr %exn.slot, align 8
  %6 = extractvalue { ptr, i32 } %4, 1
  store i32 %6, ptr %ehselector.slot, align 4
  %cleanup.is_active = load i1, ptr %cleanup.cond, align 1
  br i1 %cleanup.is_active, label %cleanup.action, label %cleanup.done

cleanup.action:                                   ; preds = %lpad
  call void @_ZN6icu_757UMemorydlEPv(ptr noundef %call) #9
  br label %cleanup.done

cleanup.done:                                     ; preds = %cleanup.action, %lpad
  br label %eh.resume

if.end:                                           ; preds = %new.cont
  %7 = load ptr, ptr %status.addr, align 8
  call void @_ZN6icu_7515CharsetDetector14setRecognizersER10UErrorCode(ptr noundef nonnull align 4 dereferenceable(4) %7)
  %8 = load ptr, ptr %status.addr, align 8
  %9 = load i32, ptr %8, align 4
  %call3 = call noundef signext i8 @_ZL9U_FAILURE10UErrorCode(i32 noundef %9)
  %tobool4 = icmp ne i8 %call3, 0
  br i1 %tobool4, label %if.then5, label %if.end6

if.then5:                                         ; preds = %if.end
  br label %for.end

if.end6:                                          ; preds = %if.end
  %10 = load i32, ptr @_ZL19fCSRecognizers_size, align 4
  %conv = sext i32 %10 to i64
  %mul = mul i64 8, %conv
  %call7 = call noalias ptr @uprv_malloc_75(i64 noundef %mul) #10
  %resultArray8 = getelementptr inbounds %"class.icu_75::CharsetDetector", ptr %this1, i32 0, i32 1
  store ptr %call7, ptr %resultArray8, align 8
  %resultArray9 = getelementptr inbounds %"class.icu_75::CharsetDetector", ptr %this1, i32 0, i32 1
  %11 = load ptr, ptr %resultArray9, align 8
  %cmp = icmp eq ptr %11, null
  br i1 %cmp, label %if.then10, label %if.end11

if.then10:                                        ; preds = %if.end6
  %12 = load ptr, ptr %status.addr, align 8
  store i32 7, ptr %12, align 4
  br label %for.end

if.end11:                                         ; preds = %if.end6
  store i32 0, ptr %i, align 4
  br label %for.cond

for.cond:                                         ; preds = %for.inc, %if.end11
  %13 = load i32, ptr %i, align 4
  %14 = load i32, ptr @_ZL19fCSRecognizers_size, align 4
  %cmp12 = icmp slt i32 %13, %14
  br i1 %cmp12, label %for.body, label %for.end

for.body:                                         ; preds = %for.cond
  %call13 = call noundef ptr @_ZN6icu_757UMemorynwEm(i64 noundef 32) #9
  %new.isnull14 = icmp eq ptr %call13, null
  store i1 false, ptr %cleanup.cond16, align 1
  br i1 %new.isnull14, label %new.cont22, label %new.notnull15

new.notnull15:                                    ; preds = %for.body
  store ptr %call13, ptr %saved-rvalue, align 8
  store i1 true, ptr %cleanup.cond16, align 1
  invoke void @_ZN6icu_7512CharsetMatchC1Ev(ptr noundef nonnull align 8 dereferenceable(32) %call13)
          to label %invoke.cont18 unwind label %lpad17

invoke.cont18:                                    ; preds = %new.notnull15
  br label %new.cont22

new.cont22:                                       ; preds = %invoke.cont18, %for.body
  %15 = phi ptr [ %call13, %invoke.cont18 ], [ null, %for.body ]
  %resultArray23 = getelementptr inbounds %"class.icu_75::CharsetDetector", ptr %this1, i32 0, i32 1
  %16 = load ptr, ptr %resultArray23, align 8
  %17 = load i32, ptr %i, align 4
  %idxprom = sext i32 %17 to i64
  %arrayidx = getelementptr inbounds ptr, ptr %16, i64 %idxprom
  store ptr %15, ptr %arrayidx, align 8
  %resultArray24 = getelementptr inbounds %"class.icu_75::CharsetDetector", ptr %this1, i32 0, i32 1
  %18 = load ptr, ptr %resultArray24, align 8
  %19 = load i32, ptr %i, align 4
  %idxprom25 = sext i32 %19 to i64
  %arrayidx26 = getelementptr inbounds ptr, ptr %18, i64 %idxprom25
  %20 = load ptr, ptr %arrayidx26, align 8
  %cmp27 = icmp eq ptr %20, null
  br i1 %cmp27, label %if.then28, label %if.end29

if.then28:                                        ; preds = %new.cont22
  %21 = load ptr, ptr %status.addr, align 8
  store i32 7, ptr %21, align 4
  br label %for.end

lpad17:                                           ; preds = %new.notnull15
  %22 = landingpad { ptr, i32 }
          cleanup
  %23 = extractvalue { ptr, i32 } %22, 0
  store ptr %23, ptr %exn.slot, align 8
  %24 = extractvalue { ptr, i32 } %22, 1
  store i32 %24, ptr %ehselector.slot, align 4
  %cleanup.is_active19 = load i1, ptr %cleanup.cond16, align 1
  br i1 %cleanup.is_active19, label %cleanup.action20, label %cleanup.done21

cleanup.action20:                                 ; preds = %lpad17
  %25 = load ptr, ptr %saved-rvalue, align 8
  call void @_ZN6icu_757UMemorydlEPv(ptr noundef %25) #9
  br label %cleanup.done21

cleanup.done21:                                   ; preds = %cleanup.action20, %lpad17
  br label %eh.resume

if.end29:                                         ; preds = %new.cont22
  br label %for.inc

for.inc:                                          ; preds = %if.end29
  %26 = load i32, ptr %i, align 4
  %add = add nsw i32 %26, 1
  store i32 %add, ptr %i, align 4
  br label %for.cond, !llvm.loop !6

for.end:                                          ; preds = %if.then28, %for.cond, %if.then10, %if.then5, %if.then
  ret void

eh.resume:                                        ; preds = %cleanup.done21, %cleanup.done
  %exn = load ptr, ptr %exn.slot, align 8
  %sel = load i32, ptr %ehselector.slot, align 4
  %lpad.val = insertvalue { ptr, i32 } poison, ptr %exn, 0
  %lpad.val30 = insertvalue { ptr, i32 } %lpad.val, i32 %sel, 1
  resume { ptr, i32 } %lpad.val30
}