; Function Attrs: mustprogress uwtable
define void @_ZN6icu_7515CharsetDetectorC2ER10UErrorCode(ptr nocapture noundef nonnull align 8 dereferenceable(32) %this, ptr noundef nonnull align 4 dereferenceable(4) %status) unnamed_addr #0 align 2 personality ptr @__gxx_personality_v0 {
entry:
  %call = tail call noundef ptr @_ZN6icu_757UMemorynwEm(i64 noundef 56) #14
  %new.isnull = icmp eq ptr %call, null
  br i1 %new.isnull, label %new.cont, label %new.notnull

new.notnull:                                      ; preds = %entry
  invoke void @_ZN6icu_759InputTextC1ER10UErrorCode(ptr noundef nonnull align 8 dereferenceable(52) %call, ptr noundef nonnull align 4 dereferenceable(4) %status)
          to label %new.cont unwind label %lpad

new.cont:                                         ; preds = %new.notnull, %entry
  store ptr %call, ptr %this, align 8
  %resultArray = getelementptr inbounds i8, ptr %this, i64 8
  %fEnabledRecognizers = getelementptr inbounds i8, ptr %this, i64 24
  store ptr null, ptr %fEnabledRecognizers, align 8
  tail call void @llvm.memset.p0.i64(ptr noundef nonnull align 8 dereferenceable(14) %resultArray, i8 0, i64 14, i1 false)
  %0 = load i32, ptr %status, align 4
  %cmp.i = icmp slt i32 %0, 1
  br i1 %cmp.i, label %if.end, label %for.end

lpad:                                             ; preds = %new.notnull
  %1 = landingpad { ptr, i32 }
          cleanup
  br label %eh.resume

if.end:                                           ; preds = %new.cont
  tail call void @_ZN6icu_7515CharsetDetector14setRecognizersER10UErrorCode(ptr noundef nonnull align 4 dereferenceable(4) %status)
  %2 = load i32, ptr %status, align 4
  %cmp.i12 = icmp slt i32 %2, 1
  br i1 %cmp.i12, label %if.end6, label %for.end

if.end6:                                          ; preds = %if.end
  %.b9 = load i1, ptr @_ZL19fCSRecognizers_size, align 4
  %mul = select i1 %.b9, i64 224, i64 0
  %call7 = tail call noalias ptr @uprv_malloc_75(i64 noundef %mul) #15
  store ptr %call7, ptr %resultArray, align 8
  %cmp = icmp eq ptr %call7, null
  br i1 %cmp, label %for.end.sink.split, label %for.cond.preheader

for.cond.preheader:                               ; preds = %if.end6
  %.b15 = load i1, ptr @_ZL19fCSRecognizers_size, align 4
  br i1 %.b15, label %for.body, label %for.end

for.cond:                                         ; preds = %new.cont22
  %indvars.iv.next = add nuw nsw i64 %indvars.iv, 1
  %.b = load i1, ptr @_ZL19fCSRecognizers_size, align 4
  %cmp1210 = icmp ult i64 %indvars.iv, 27
  %cmp12 = select i1 %.b, i1 %cmp1210, i1 false
  br i1 %cmp12, label %for.body, label %for.end, !llvm.loop !6

for.body:                                         ; preds = %for.cond.preheader, %for.cond
  %indvars.iv = phi i64 [ %indvars.iv.next, %for.cond ], [ 0, %for.cond.preheader ]
  %call13 = tail call noundef ptr @_ZN6icu_757UMemorynwEm(i64 noundef 32) #14
  %new.isnull14 = icmp eq ptr %call13, null
  br i1 %new.isnull14, label %new.cont22, label %new.notnull15

new.notnull15:                                    ; preds = %for.body
  invoke void @_ZN6icu_7512CharsetMatchC1Ev(ptr noundef nonnull align 8 dereferenceable(32) %call13)
          to label %new.cont22 unwind label %lpad17

new.cont22:                                       ; preds = %new.notnull15, %for.body
  %3 = load ptr, ptr %resultArray, align 8
  %arrayidx = getelementptr inbounds ptr, ptr %3, i64 %indvars.iv
  store ptr %call13, ptr %arrayidx, align 8
  %4 = load ptr, ptr %resultArray, align 8
  %arrayidx26 = getelementptr inbounds ptr, ptr %4, i64 %indvars.iv
  %5 = load ptr, ptr %arrayidx26, align 8
  %cmp27 = icmp eq ptr %5, null
  br i1 %cmp27, label %for.end.sink.split, label %for.cond

lpad17:                                           ; preds = %new.notnull15
  %6 = landingpad { ptr, i32 }
          cleanup
  br label %eh.resume

for.end.sink.split:                               ; preds = %new.cont22, %if.end6
  store i32 7, ptr %status, align 4
  br label %for.end

for.end:                                          ; preds = %for.cond, %for.end.sink.split, %for.cond.preheader, %if.end, %new.cont
  ret void

eh.resume:                                        ; preds = %lpad17, %lpad
  %call13.lcssa.sink = phi ptr [ %call13, %lpad17 ], [ %call, %lpad ]
  %.pn = phi { ptr, i32 } [ %6, %lpad17 ], [ %1, %lpad ]
  tail call void @_ZN6icu_757UMemorydlEPv(ptr noundef nonnull %call13.lcssa.sink) #14
  resume { ptr, i32 } %.pn
}